; Function Attrs: mustprogress nofree norecurse nosync nounwind willreturn memory(read, inaccessiblemem: none) uwtable
define range(i32 0, 2) i32 @Res_WinIsTrivial(ptr noundef readonly captures(none) %0) local_unnamed_addr #4 {
  %2 = getelementptr inbounds nuw i8, ptr %0, i64 40
  %3 = load ptr, ptr %2, align 8
  %4 = getelementptr i8, ptr %3, i64 4
  %.val = load i32, ptr %4, align 4
  %5 = icmp eq i32 %.val, 1
  br i1 %5, label %6, label %12

6:                                                ; preds = %1
  %7 = getelementptr i8, ptr %3, i64 8
  %.val3 = load ptr, ptr %7, align 8
  %8 = load ptr, ptr %.val3, align 8
  %9 = load ptr, ptr %0, align 8
  %10 = icmp eq ptr %8, %9
  %11 = zext i1 %10 to i32
  br label %12

12:                                               ; preds = %6, %1
  %13 = phi i32 [ 0, %1 ], [ %11, %6 ]
  ret i32 %13
}